; Function Attrs: nounwind sspstrong uwtable
define dso_local double @qnum_get_double(ptr noundef readonly captures(none) %qn) local_unnamed_addr #0 {
entry:
  %kind = getelementptr inbounds nuw i8, ptr %qn, i64 16
  %0 = load i32, ptr %kind, align 8
  switch i32 %0, label %sw.epilog [
    i32 0, label %sw.bb
    i32 1, label %sw.bb1
    i32 2, label %sw.bb4
  ]

sw.bb:                                            ; preds = %entry
  %u = getelementptr inbounds nuw i8, ptr %qn, i64 24
  %1 = load i64, ptr %u, align 8
  %conv = sitofp i64 %1 to double
  br label %return

sw.bb1:                                           ; preds = %entry
  %u2 = getelementptr inbounds nuw i8, ptr %qn, i64 24
  %2 = load i64, ptr %u2, align 8
  %conv3 = uitofp i64 %2 to double
  br label %return

sw.bb4:                                           ; preds = %entry
  %u5 = getelementptr inbounds nuw i8, ptr %qn, i64 24
  %3 = load double, ptr %u5, align 8
  br label %return

sw.epilog:                                        ; preds = %entry
  tail call void @__assert_fail(ptr noundef nonnull @.str, ptr noundef nonnull @.str.1, i32 noundef 159, ptr noundef nonnull @__PRETTY_FUNCTION__.qnum_get_double) #6
  unreachable

return:                                           ; preds = %sw.bb4, %sw.bb1, %sw.bb
  %retval.0 = phi double [ %3, %sw.bb4 ], [ %conv3, %sw.bb1 ], [ %conv, %sw.bb ]
  ret double %retval.0
}